(dp0
S'screen_width'
p1
I1364
sS'hex_flipper_radius'
p2
I8
sS'xB'
p3
I946
sS'dimer_width'
p4
I3
sS'xA'
p5
I417
sS'xCenter'
p6
I946
sS'y'
p7
I45
sS'window'
p8
I529
sS'shading_intensity'
p9
I1
sS'overlay_offset'
p10
I0
sS'tile_edge_width'
p11
I2
sS'button_height'
p12
I20
sS'randomize_steps'
p13
I500
sS'screen_height'
p14
I690
s.