(dp0
S'B_tiling'
p1
I01
sS'center_B_matching'
p2
I01
sS'A_boxes'
p3
I00
sS'center_A_boundary'
p4
I01
sS'B_background'
p5
I00
sS'A_boundary'
p6
I00
sS'B_centers'
p7
I00
sS'A'
p8
I01
sS'B'
p9
I01
sS'center_B_boundary'
p10
I01
sS'Center'
p11
I01
sS'A_background'
p12
I00
sS'B_matching'
p13
I01
sS'B_boxes'
p14
I00
sS'center_A_matching'
p15
I01
sS'Highlight'
p16
I01
sS'A_matching'
p17
I01
sS'center_background'
p18
I00
sS'A_tiling'
p19
I01
sS'B_boundary'
p20
I00
sS'A_centers'
p21
I00
sS'center_doubled_edges'
p22
I01
s.