(dp0
S'A'
p1
I01
sS'center_B_matching'
p2
I01
sS'A_boxes'
p3
I01
sS'B_background'
p4
I01
sS'A_boundary'
p5
I00
sS'B_centers'
p6
I01
sS'B_tiling'
p7
I01
sS'B'
p8
I00
sS'center_B_boundary'
p9
I01
sS'Center'
p10
I00
sS'A_background'
p11
I01
sS'B_matching'
p12
I00
sS'B_boxes'
p13
I01
sS'center_A_matching'
p14
I01
sS'center_A_boundary'
p15
I01
sS'A_matching'
p16
I00
sS'Highlight'
p17
I01
sS'center_background'
p18
I00
sS'A_tiling'
p19
I01
sS'B_boundary'
p20
I01
sS'A_centers'
p21
I00
sS'center_doubled_edges'
p22
I00
s.