ccollections
defaultdict
p0
(c__builtin__
bool
p1
tp2
Rp3
S'B_tiling'
p4
I00
sS'A'
p5
I01
sS'B'
p6
I01
sS'center_B_boundary'
p7
I01
sS'Center'
p8
I01
sS'A_background'
p9
I01
sS'B_matching'
p10
I01
sS'B_boxes'
p11
I00
sS'center_A_matching'
p12
I01
sS'center_B_matching'
p13
I01
sS'center_A_boundary'
p14
I01
sS'A_matching'
p15
I01
sS'A_boxes'
p16
I00
sS'Highlight'
p17
I01
sS'B_background'
p18
I01
sS'A_boundary'
p19
I00
sS'center_background'
p20
I00
sS'A_tiling'
p21
I00
sS'B_centers'
p22
I01
sS'B_boundary'
p23
I00
sS'A_centers'
p24
I01
sS'center_doubled_edges'
p25
I01
s.