(dp0
S'screen_width'
p1
I1364
sS'hex_flipper_radius'
p2
I4
sS'xB'
p3
I909
sS'dimer_width'
p4
I3
sS'xA'
p5
I1
sS'xCenter'
p6
I455
sS'overlay_offset'
p7
I0
sS'window'
p8
I454
sS'shading_intensity'
p9
I1
sS'y'
p10
I45
sS'tile_edge_width'
p11
I2
sS'screen_height'
p12
I690
sS'randomize_steps'
p13
I500
sS'button_height'
p14
I20
s.