(dp0
S'B_tiling'
p1
I01
sS'B_background'
p2
I00
sS'A_boundary'
p3
I00
sS'center_background'
p4
I00
sS'A_centers'
p5
I00
sS'A_background'
p6
I00
sS'B_matching'
p7
I00
sS'B_boxes'
p8
I01
sS'A_tiling'
p9
I01
sS'B_centers'
p10
I00
sS'B_boundary'
p11
I00
sS'center_A_matching'
p12
I01
sS'center_B_matching'
p13
I01
sS'center_B_boundary'
p14
I01
sS'center_doubled_edges'
p15
I01
sS'A_matching'
p16
I00
sS'A_boxes'
p17
I01
sS'center_A_boundary'
p18
I00
s.