(dp0
S'screen_width'
p1
I1364
sS'hex_flipper_radius'
p2
I4
sS'xB'
p3
I682
sS'dimer_width'
p4
I3
sS'xA'
p5
I154
sS'xCenter'
p6
I682
sS'overlay_offset'
p7
I0
sS'window'
p8
I528
sS'shading_intensity'
p9
F1.8000000000000007
sS'y'
p10
I45
sS'tile_edge_width'
p11
I2
sS'button_height'
p12
I20
sS'randomize_steps'
p13
I500
sS'screen_height'
p14
I690
s.